; Function Attrs: mustprogress uwtable
define void @_ZN8proxygen15AsyncTimeoutSet8Callback17cancelTimeoutImplEv(ptr nocapture noundef nonnull align 8 dereferenceable(56) %this) local_unnamed_addr #6 align 2 {
entry:
  %next_ = getelementptr inbounds i8, ptr %this, i64 40
  %0 = load ptr, ptr %next_, align 8
  %cmp = icmp eq ptr %0, null
  %prev_ = getelementptr inbounds i8, ptr %this, i64 32
  %1 = load ptr, ptr %prev_, align 8
  %prev_4 = getelementptr inbounds i8, ptr %0, i64 32
  %timeoutSet_ = getelementptr inbounds i8, ptr %this, i64 24
  %2 = load ptr, ptr %timeoutSet_, align 8
  %tail_ = getelementptr inbounds i8, ptr %2, i64 224
  %prev_4.sink = select i1 %cmp, ptr %tail_, ptr %prev_4
  store ptr %1, ptr %prev_4.sink, align 8
  %cmp6 = icmp eq ptr %1, null
  %3 = load ptr, ptr %next_, align 8
  br i1 %cmp6, label %if.then7, label %if.else11

if.then7:                                         ; preds = %entry
  %timeoutSet_9 = getelementptr inbounds i8, ptr %this, i64 24
  %4 = load ptr, ptr %timeoutSet_9, align 8
  %head_ = getelementptr inbounds i8, ptr %4, i64 216
  store ptr %3, ptr %head_, align 8
  %5 = load ptr, ptr %timeoutSet_9, align 8
  tail call void @_ZN8proxygen15AsyncTimeoutSet11headChangedEv(ptr noundef nonnull align 8 dereferenceable(249) %5)
  br label %if.end15

if.else11:                                        ; preds = %entry
  %next_14 = getelementptr inbounds i8, ptr %1, i64 40
  store ptr %3, ptr %next_14, align 8
  br label %if.end15

if.end15:                                         ; preds = %if.else11, %if.then7
  %timeoutSet_16 = getelementptr inbounds i8, ptr %this, i64 24
  tail call void @llvm.memset.p0.i64(ptr noundef nonnull align 8 dereferenceable(32) %timeoutSet_16, i8 0, i64 32, i1 false)
  ret void
}